; Function Attrs: mustprogress uwtable
define hidden void @_ZNK2cv10MatOp_GEMM9transposeERKNS_7MatExprERS1_(ptr nocapture nonnull readnone align 8 %0, ptr noundef nonnull align 8 dereferenceable(352) %1, ptr noundef nonnull align 8 dereferenceable(352) %2) unnamed_addr #8 align 2 personality ptr @__gxx_personality_v0 {
  %4 = alloca %"class.cv::utils::trace::details::Region", align 8
  call void @_ZN2cv5utils5trace7details6RegionC1ERKNS3_21LocationStaticStorageE(ptr noundef nonnull align 8 dereferenceable(12) %4, ptr noundef nonnull align 8 dereferenceable(32) @_ZZNK2cv10MatOp_GEMM9transposeERKNS_7MatExprERS1_E26__cv_trace_location_fn1618)
  call void @llvm.memcpy.p0.p0.i64(ptr noundef nonnull align 8 dereferenceable(12) %2, ptr noundef nonnull align 8 dereferenceable(12) %1, i64 12, i1 false)
  %5 = getelementptr inbounds i8, ptr %2, i64 16
  %6 = getelementptr inbounds i8, ptr %1, i64 16
  %7 = invoke noundef nonnull align 8 dereferenceable(96) ptr @_ZN2cv3MataSERKS0_(ptr noundef nonnull align 8 dereferenceable(96) %5, ptr noundef nonnull align 8 dereferenceable(96) %6)
          to label %.noexc unwind label %45

.noexc:                                           ; preds = %3
  %8 = getelementptr inbounds i8, ptr %2, i64 112
  %9 = getelementptr inbounds i8, ptr %1, i64 112
  %10 = invoke noundef nonnull align 8 dereferenceable(96) ptr @_ZN2cv3MataSERKS0_(ptr noundef nonnull align 8 dereferenceable(96) %8, ptr noundef nonnull align 8 dereferenceable(96) %9)
          to label %.noexc9 unwind label %45

.noexc9:                                          ; preds = %.noexc
  %11 = getelementptr inbounds i8, ptr %2, i64 208
  %12 = getelementptr inbounds i8, ptr %1, i64 208
  %13 = invoke noundef nonnull align 8 dereferenceable(96) ptr @_ZN2cv3MataSERKS0_(ptr noundef nonnull align 8 dereferenceable(96) %11, ptr noundef nonnull align 8 dereferenceable(96) %12)
          to label %14 unwind label %45

14:                                               ; preds = %.noexc9
  %15 = getelementptr inbounds i8, ptr %2, i64 304
  %16 = getelementptr inbounds i8, ptr %1, i64 304
  call void @llvm.memcpy.p0.p0.i64(ptr noundef nonnull align 8 dereferenceable(16) %15, ptr noundef nonnull align 8 dereferenceable(16) %16, i64 16, i1 false)
  %17 = getelementptr inbounds i8, ptr %2, i64 320
  %18 = getelementptr inbounds i8, ptr %1, i64 320
  %19 = load double, ptr %18, align 8
  store double %19, ptr %17, align 8
  %20 = getelementptr inbounds i8, ptr %1, i64 328
  %21 = load double, ptr %20, align 8
  %22 = getelementptr inbounds i8, ptr %2, i64 328
  store double %21, ptr %22, align 8
  %23 = getelementptr inbounds i8, ptr %1, i64 336
  %24 = load double, ptr %23, align 8
  %25 = getelementptr inbounds i8, ptr %2, i64 336
  store double %24, ptr %25, align 8
  %26 = getelementptr inbounds i8, ptr %1, i64 344
  %27 = load double, ptr %26, align 8
  %28 = getelementptr inbounds i8, ptr %2, i64 344
  store double %27, ptr %28, align 8
  %29 = getelementptr inbounds i8, ptr %1, i64 8
  %30 = load i32, ptr %29, align 8
  %trunc = trunc i32 %30 to i2
  %31 = xor i2 %trunc, -1
  %32 = call i2 @llvm.bitreverse.i2(i2 %31)
  %33 = zext i2 %32 to i32
  %34 = and i32 %30, 4
  %35 = or disjoint i32 %34, %33
  %36 = xor i32 %35, 4
  %37 = getelementptr inbounds i8, ptr %2, i64 8
  store i32 %36, ptr %37, align 8
  invoke void @_ZN2cv4swapERNS_3MatES1_(ptr noundef nonnull align 8 dereferenceable(96) %5, ptr noundef nonnull align 8 dereferenceable(96) %8)
          to label %38 unwind label %45

38:                                               ; preds = %14
  %39 = getelementptr inbounds i8, ptr %4, i64 8
  %40 = load i32, ptr %39, align 8
  %.not.i = icmp eq i32 %40, 0
  br i1 %.not.i, label %_ZN2cv5utils5trace7details6RegionD2Ev.exit, label %41

41:                                               ; preds = %38
  invoke void @_ZN2cv5utils5trace7details6Region7destroyEv(ptr noundef nonnull align 8 dereferenceable(12) %4)
          to label %_ZN2cv5utils5trace7details6RegionD2Ev.exit unwind label %42

42:                                               ; preds = %41
  %43 = landingpad { ptr, i32 }
          catch ptr null
  %44 = extractvalue { ptr, i32 } %43, 0
  call void @__clang_call_terminate(ptr %44) #20
  unreachable

_ZN2cv5utils5trace7details6RegionD2Ev.exit:       ; preds = %38, %41
  ret void

45:                                               ; preds = %.noexc9, %.noexc, %3, %14
  %46 = landingpad { ptr, i32 }
          cleanup
  call void @_ZN2cv5utils5trace7details6RegionD2Ev(ptr noundef nonnull align 8 dereferenceable(12) %4) #21
  resume { ptr, i32 } %46
}